target datalayout = "e-m:e-p270:32:32-p271:32:32-p272:64:64-i64:64-i128:128-f80:128-n8:16:32:64-S128"
target triple = "x86_64-pc-linux-gnu"

%struct.FunctionCallInfoBaseData = type { ptr, ptr, ptr, i32, i8, i16, [0 x %struct.NullableDatum] }
%struct.NullableDatum = type { i64, i8 }

@.str.2 = private unnamed_addr constant [21 x i8] c"n_distinct_per_range\00", align 1
@.str.3 = private unnamed_addr constant [55 x i8] c"number of distinct items expected in a BRIN page range\00", align 1
@.str.4 = private unnamed_addr constant [20 x i8] c"false_positive_rate\00", align 1
@.str.5 = private unnamed_addr constant [50 x i8] c"desired false-positive rate for the bloom filters\00", align 1

; Function Attrs: inlinehint nounwind uwtable
define internal ptr @DatumGetPointer(i64 noundef %0) #3 {
  %2 = alloca i64, align 8
  store i64 %0, ptr %2, align 8
  %3 = load i64, ptr %2, align 8
  %4 = inttoptr i64 %3 to ptr
  ret ptr %4
}

; Function Attrs: nounwind uwtable
define dso_local i64 @brin_bloom_options(ptr noundef %0) #0 {
  %2 = alloca ptr, align 8
  %3 = alloca ptr, align 8
  store ptr %0, ptr %2, align 8
  call void @llvm.lifetime.start.p0(i64 8, ptr %3) #7
  %4 = load ptr, ptr %2, align 8
  %5 = getelementptr inbounds nuw %struct.FunctionCallInfoBaseData, ptr %4, i32 0, i32 6
  %6 = getelementptr inbounds [0 x %struct.NullableDatum], ptr %5, i64 0, i64 0
  %7 = getelementptr inbounds nuw %struct.NullableDatum, ptr %6, i32 0, i32 0
  %8 = load i64, ptr %7, align 8
  %9 = call ptr @DatumGetPointer(i64 noundef %8)
  store ptr %9, ptr %3, align 8
  %10 = load ptr, ptr %3, align 8
  call void @init_local_reloptions(ptr noundef %10, i64 noundef 24)
  %11 = load ptr, ptr %3, align 8
  call void @add_local_real_reloption(ptr noundef %11, ptr noundef @.str.2, ptr noundef @.str.3, double noundef -1.000000e-01, double noundef -1.000000e+00, double noundef 0x41DFFFFFFFC00000, i32 noundef 8)
  %12 = load ptr, ptr %3, align 8
  call void @add_local_real_reloption(ptr noundef %12, ptr noundef @.str.4, ptr noundef @.str.5, double noundef 1.000000e-02, double noundef 1.000000e-04, double noundef 2.500000e-01, i32 noundef 16)
  call void @llvm.lifetime.end.p0(i64 8, ptr %3) #7
  ret i64 0
}