; Function Attrs: nounwind uwtable
define dso_local noundef i64 @brin_bloom_options(ptr noundef readonly captures(none) %0) local_unnamed_addr #0 {
  %2 = getelementptr inbounds nuw i8, ptr %0, i64 32
  %3 = load i64, ptr %2, align 8
  %4 = inttoptr i64 %3 to ptr
  tail call void @init_local_reloptions(ptr noundef %4, i64 noundef 24) #8
  tail call void @add_local_real_reloption(ptr noundef %4, ptr noundef nonnull @.str.2, ptr noundef nonnull @.str.3, double noundef -1.000000e-01, double noundef -1.000000e+00, double noundef 0x41DFFFFFFFC00000, i32 noundef 8) #8
  tail call void @add_local_real_reloption(ptr noundef %4, ptr noundef nonnull @.str.4, ptr noundef nonnull @.str.5, double noundef 1.000000e-02, double noundef 1.000000e-04, double noundef 2.500000e-01, i32 noundef 16) #8
  ret i64 0
}